; Function Attrs: mustprogress uwtable
define internal void @_ZN12_GLOBAL__N_110BTVL1_Base14collectGarbageEv(ptr noundef nonnull align 8 dereferenceable(984) %0) unnamed_addr #0 align 2 personality ptr @__gxx_personality_v0 {
  %2 = getelementptr inbounds i8, ptr %0, i64 264
  %3 = load ptr, ptr %2, align 8
  %4 = getelementptr inbounds i8, ptr %0, i64 272
  %5 = load ptr, ptr %4, align 8
  %.not.i.i = icmp eq ptr %5, %3
  br i1 %.not.i.i, label %_ZNSt6vectorIN2cv3MatESaIS1_EE5clearEv.exit, label %.lr.ph.i.i.i.i.i

.lr.ph.i.i.i.i.i:                                 ; preds = %1, %.lr.ph.i.i.i.i.i
  %.05.i.i.i.i.i = phi ptr [ %6, %.lr.ph.i.i.i.i.i ], [ %3, %1 ]
  tail call void @_ZN2cv3MatD1Ev(ptr noundef nonnull align 8 dereferenceable(96) %.05.i.i.i.i.i) #29
  %6 = getelementptr inbounds i8, ptr %.05.i.i.i.i.i, i64 96
  %.not.i.i.i.i.i = icmp eq ptr %6, %5
  br i1 %.not.i.i.i.i.i, label %_ZSt8_DestroyIPN2cv3MatES1_EvT_S3_RSaIT0_E.exit.i.i, label %.lr.ph.i.i.i.i.i, !llvm.loop !9

_ZSt8_DestroyIPN2cv3MatES1_EvT_S3_RSaIT0_E.exit.i.i: ; preds = %.lr.ph.i.i.i.i.i
  store ptr %3, ptr %4, align 8
  br label %_ZNSt6vectorIN2cv3MatESaIS1_EE5clearEv.exit

_ZNSt6vectorIN2cv3MatESaIS1_EE5clearEv.exit:      ; preds = %1, %_ZSt8_DestroyIPN2cv3MatES1_EvT_S3_RSaIT0_E.exit.i.i
  %7 = getelementptr inbounds i8, ptr %0, i64 288
  %8 = load ptr, ptr %7, align 8
  %9 = getelementptr inbounds i8, ptr %0, i64 296
  %10 = load ptr, ptr %9, align 8
  %.not.i.i1 = icmp eq ptr %10, %8
  br i1 %.not.i.i1, label %_ZNSt6vectorIN2cv3MatESaIS1_EE5clearEv.exit6, label %.lr.ph.i.i.i.i.i2

.lr.ph.i.i.i.i.i2:                                ; preds = %_ZNSt6vectorIN2cv3MatESaIS1_EE5clearEv.exit, %.lr.ph.i.i.i.i.i2
  %.05.i.i.i.i.i3 = phi ptr [ %11, %.lr.ph.i.i.i.i.i2 ], [ %8, %_ZNSt6vectorIN2cv3MatESaIS1_EE5clearEv.exit ]
  tail call void @_ZN2cv3MatD1Ev(ptr noundef nonnull align 8 dereferenceable(96) %.05.i.i.i.i.i3) #29
  %11 = getelementptr inbounds i8, ptr %.05.i.i.i.i.i3, i64 96
  %.not.i.i.i.i.i4 = icmp eq ptr %11, %10
  br i1 %.not.i.i.i.i.i4, label %_ZSt8_DestroyIPN2cv3MatES1_EvT_S3_RSaIT0_E.exit.i.i5, label %.lr.ph.i.i.i.i.i2, !llvm.loop !9

_ZSt8_DestroyIPN2cv3MatES1_EvT_S3_RSaIT0_E.exit.i.i5: ; preds = %.lr.ph.i.i.i.i.i2
  store ptr %8, ptr %9, align 8
  br label %_ZNSt6vectorIN2cv3MatESaIS1_EE5clearEv.exit6

_ZNSt6vectorIN2cv3MatESaIS1_EE5clearEv.exit6:     ; preds = %_ZNSt6vectorIN2cv3MatESaIS1_EE5clearEv.exit, %_ZSt8_DestroyIPN2cv3MatES1_EvT_S3_RSaIT0_E.exit.i.i5
  %12 = getelementptr inbounds i8, ptr %0, i64 312
  %13 = load ptr, ptr %12, align 8
  %14 = getelementptr inbounds i8, ptr %0, i64 320
  %15 = load ptr, ptr %14, align 8
  %.not.i.i7 = icmp eq ptr %15, %13
  br i1 %.not.i.i7, label %_ZNSt6vectorIN2cv3MatESaIS1_EE5clearEv.exit12, label %.lr.ph.i.i.i.i.i8

.lr.ph.i.i.i.i.i8:                                ; preds = %_ZNSt6vectorIN2cv3MatESaIS1_EE5clearEv.exit6, %.lr.ph.i.i.i.i.i8
  %.05.i.i.i.i.i9 = phi ptr [ %16, %.lr.ph.i.i.i.i.i8 ], [ %13, %_ZNSt6vectorIN2cv3MatESaIS1_EE5clearEv.exit6 ]
  tail call void @_ZN2cv3MatD1Ev(ptr noundef nonnull align 8 dereferenceable(96) %.05.i.i.i.i.i9) #29
  %16 = getelementptr inbounds i8, ptr %.05.i.i.i.i.i9, i64 96
  %.not.i.i.i.i.i10 = icmp eq ptr %16, %15
  br i1 %.not.i.i.i.i.i10, label %_ZSt8_DestroyIPN2cv3MatES1_EvT_S3_RSaIT0_E.exit.i.i11, label %.lr.ph.i.i.i.i.i8, !llvm.loop !9

_ZSt8_DestroyIPN2cv3MatES1_EvT_S3_RSaIT0_E.exit.i.i11: ; preds = %.lr.ph.i.i.i.i.i8
  store ptr %13, ptr %14, align 8
  br label %_ZNSt6vectorIN2cv3MatESaIS1_EE5clearEv.exit12

_ZNSt6vectorIN2cv3MatESaIS1_EE5clearEv.exit12:    ; preds = %_ZNSt6vectorIN2cv3MatESaIS1_EE5clearEv.exit6, %_ZSt8_DestroyIPN2cv3MatES1_EvT_S3_RSaIT0_E.exit.i.i11
  %17 = getelementptr inbounds i8, ptr %0, i64 336
  %18 = load ptr, ptr %17, align 8
  %19 = getelementptr inbounds i8, ptr %0, i64 344
  %20 = load ptr, ptr %19, align 8
  %.not.i.i13 = icmp eq ptr %20, %18
  br i1 %.not.i.i13, label %_ZNSt6vectorIN2cv3MatESaIS1_EE5clearEv.exit18, label %.lr.ph.i.i.i.i.i14

.lr.ph.i.i.i.i.i14:                               ; preds = %_ZNSt6vectorIN2cv3MatESaIS1_EE5clearEv.exit12, %.lr.ph.i.i.i.i.i14
  %.05.i.i.i.i.i15 = phi ptr [ %21, %.lr.ph.i.i.i.i.i14 ], [ %18, %_ZNSt6vectorIN2cv3MatESaIS1_EE5clearEv.exit12 ]
  tail call void @_ZN2cv3MatD1Ev(ptr noundef nonnull align 8 dereferenceable(96) %.05.i.i.i.i.i15) #29
  %21 = getelementptr inbounds i8, ptr %.05.i.i.i.i.i15, i64 96
  %.not.i.i.i.i.i16 = icmp eq ptr %21, %20
  br i1 %.not.i.i.i.i.i16, label %_ZSt8_DestroyIPN2cv3MatES1_EvT_S3_RSaIT0_E.exit.i.i17, label %.lr.ph.i.i.i.i.i14, !llvm.loop !9

_ZSt8_DestroyIPN2cv3MatES1_EvT_S3_RSaIT0_E.exit.i.i17: ; preds = %.lr.ph.i.i.i.i.i14
  store ptr %18, ptr %19, align 8
  br label %_ZNSt6vectorIN2cv3MatESaIS1_EE5clearEv.exit18

_ZNSt6vectorIN2cv3MatESaIS1_EE5clearEv.exit18:    ; preds = %_ZNSt6vectorIN2cv3MatESaIS1_EE5clearEv.exit12, %_ZSt8_DestroyIPN2cv3MatES1_EvT_S3_RSaIT0_E.exit.i.i17
  %22 = getelementptr inbounds i8, ptr %0, i64 360
  %23 = load ptr, ptr %22, align 8
  %24 = getelementptr inbounds i8, ptr %0, i64 368
  %25 = load ptr, ptr %24, align 8
  %.not.i.i19 = icmp eq ptr %25, %23
  br i1 %.not.i.i19, label %_ZNSt6vectorIN2cv3MatESaIS1_EE5clearEv.exit24, label %.lr.ph.i.i.i.i.i20

.lr.ph.i.i.i.i.i20:                               ; preds = %_ZNSt6vectorIN2cv3MatESaIS1_EE5clearEv.exit18, %.lr.ph.i.i.i.i.i20
  %.05.i.i.i.i.i21 = phi ptr [ %26, %.lr.ph.i.i.i.i.i20 ], [ %23, %_ZNSt6vectorIN2cv3MatESaIS1_EE5clearEv.exit18 ]
  tail call void @_ZN2cv3MatD1Ev(ptr noundef nonnull align 8 dereferenceable(96) %.05.i.i.i.i.i21) #29
  %26 = getelementptr inbounds i8, ptr %.05.i.i.i.i.i21, i64 96
  %.not.i.i.i.i.i22 = icmp eq ptr %26, %25
  br i1 %.not.i.i.i.i.i22, label %_ZSt8_DestroyIPN2cv3MatES1_EvT_S3_RSaIT0_E.exit.i.i23, label %.lr.ph.i.i.i.i.i20, !llvm.loop !9

_ZSt8_DestroyIPN2cv3MatES1_EvT_S3_RSaIT0_E.exit.i.i23: ; preds = %.lr.ph.i.i.i.i.i20
  store ptr %23, ptr %24, align 8
  br label %_ZNSt6vectorIN2cv3MatESaIS1_EE5clearEv.exit24

_ZNSt6vectorIN2cv3MatESaIS1_EE5clearEv.exit24:    ; preds = %_ZNSt6vectorIN2cv3MatESaIS1_EE5clearEv.exit18, %_ZSt8_DestroyIPN2cv3MatES1_EvT_S3_RSaIT0_E.exit.i.i23
  %27 = getelementptr inbounds i8, ptr %0, i64 384
  %28 = load ptr, ptr %27, align 8
  %29 = getelementptr inbounds i8, ptr %0, i64 392
  %30 = load ptr, ptr %29, align 8
  %.not.i.i25 = icmp eq ptr %30, %28
  br i1 %.not.i.i25, label %_ZNSt6vectorIN2cv3MatESaIS1_EE5clearEv.exit30, label %.lr.ph.i.i.i.i.i26

.lr.ph.i.i.i.i.i26:                               ; preds = %_ZNSt6vectorIN2cv3MatESaIS1_EE5clearEv.exit24, %.lr.ph.i.i.i.i.i26
  %.05.i.i.i.i.i27 = phi ptr [ %31, %.lr.ph.i.i.i.i.i26 ], [ %28, %_ZNSt6vectorIN2cv3MatESaIS1_EE5clearEv.exit24 ]
  tail call void @_ZN2cv3MatD1Ev(ptr noundef nonnull align 8 dereferenceable(96) %.05.i.i.i.i.i27) #29
  %31 = getelementptr inbounds i8, ptr %.05.i.i.i.i.i27, i64 96
  %.not.i.i.i.i.i28 = icmp eq ptr %31, %30
  br i1 %.not.i.i.i.i.i28, label %_ZSt8_DestroyIPN2cv3MatES1_EvT_S3_RSaIT0_E.exit.i.i29, label %.lr.ph.i.i.i.i.i26, !llvm.loop !9

_ZSt8_DestroyIPN2cv3MatES1_EvT_S3_RSaIT0_E.exit.i.i29: ; preds = %.lr.ph.i.i.i.i.i26
  store ptr %28, ptr %29, align 8
  br label %_ZNSt6vectorIN2cv3MatESaIS1_EE5clearEv.exit30

_ZNSt6vectorIN2cv3MatESaIS1_EE5clearEv.exit30:    ; preds = %_ZNSt6vectorIN2cv3MatESaIS1_EE5clearEv.exit24, %_ZSt8_DestroyIPN2cv3MatES1_EvT_S3_RSaIT0_E.exit.i.i29
  %32 = getelementptr inbounds i8, ptr %0, i64 408
  tail call void @_ZN2cv3Mat7releaseEv(ptr noundef nonnull align 8 dereferenceable(96) %32)
  %33 = getelementptr inbounds i8, ptr %0, i64 504
  tail call void @_ZN2cv3Mat7releaseEv(ptr noundef nonnull align 8 dereferenceable(96) %33)
  %34 = getelementptr inbounds i8, ptr %0, i64 600
  tail call void @_ZN2cv3Mat7releaseEv(ptr noundef nonnull align 8 dereferenceable(96) %34)
  %35 = getelementptr inbounds i8, ptr %0, i64 696
  tail call void @_ZN2cv3Mat7releaseEv(ptr noundef nonnull align 8 dereferenceable(96) %35)
  %36 = getelementptr inbounds i8, ptr %0, i64 792
  tail call void @_ZN2cv3Mat7releaseEv(ptr noundef nonnull align 8 dereferenceable(96) %36)
  %37 = getelementptr inbounds i8, ptr %0, i64 888
  tail call void @_ZN2cv3Mat7releaseEv(ptr noundef nonnull align 8 dereferenceable(96) %37)
  ret void
}